; Function Attrs: uwtable
define void @_ZN9grpc_core5Party6WakeupEt(ptr noundef nonnull align 8 dereferenceable(168) %this, i16 noundef zeroext %wakeup_mask) unnamed_addr #13 align 2 personality ptr @__gxx_personality_v0 {
entry:
  %sync_ = getelementptr inbounds i8, ptr %this, i64 16
  %conv.i = zext i16 %wakeup_mask to i64
  %or.i = or disjoint i64 %conv.i, 34359738368
  %0 = atomicrmw or ptr %sync_, i64 %or.i acq_rel, align 8
  %and2.i = and i64 %0, 34359738368
  %cmp.i = icmp eq i64 %and2.i, 0
  br i1 %cmp.i, label %if.then, label %if.end

if.then:                                          ; preds = %entry
  %vtable.i.i = load ptr, ptr %this, align 8
  %vfn.i.i = getelementptr inbounds i8, ptr %vtable.i.i, i64 72
  %1 = load ptr, ptr %vfn.i.i, align 8
  %call.i.i = tail call noundef zeroext i1 %1(ptr noundef nonnull align 8 dereferenceable(168) %this)
  br i1 %call.i.i, label %if.then.i.i, label %if.end

if.then.i.i:                                      ; preds = %if.then
  br i1 icmp ne (ptr @_ZTHN9grpc_core8Activity19g_current_activity_E, ptr null), label %2, label %_ZTWN9grpc_core8Activity19g_current_activity_E.exit.i.i.i

2:                                                ; preds = %if.then.i.i
  tail call void @_ZTHN9grpc_core8Activity19g_current_activity_E()
  br label %_ZTWN9grpc_core8Activity19g_current_activity_E.exit.i.i.i

_ZTWN9grpc_core8Activity19g_current_activity_E.exit.i.i.i: ; preds = %2, %if.then.i.i
  %3 = tail call noundef align 8 ptr @llvm.threadlocal.address.p0(ptr align 8 @_ZN9grpc_core8Activity19g_current_activity_E)
  %4 = load ptr, ptr %3, align 8
  br i1 icmp ne (ptr @_ZTHN9grpc_core8Activity19g_current_activity_E, ptr null), label %5, label %_ZN9grpc_core8Activity14ScopedActivityC2EPS0_.exit.i.i

5:                                                ; preds = %_ZTWN9grpc_core8Activity19g_current_activity_E.exit.i.i.i
  tail call void @_ZTHN9grpc_core8Activity19g_current_activity_E()
  br label %_ZN9grpc_core8Activity14ScopedActivityC2EPS0_.exit.i.i

_ZN9grpc_core8Activity14ScopedActivityC2EPS0_.exit.i.i: ; preds = %5, %_ZTWN9grpc_core8Activity19g_current_activity_E.exit.i.i.i
  store ptr %this, ptr %3, align 8
  %vtable2.i.i = load ptr, ptr %this, align 8
  %vfn3.i.i = getelementptr inbounds i8, ptr %vtable2.i.i, i64 80
  %6 = load ptr, ptr %vfn3.i.i, align 8
  invoke void %6(ptr noundef nonnull align 8 dereferenceable(168) %this)
          to label %invoke.cont.i.i unwind label %lpad.i.i

invoke.cont.i.i:                                  ; preds = %_ZN9grpc_core8Activity14ScopedActivityC2EPS0_.exit.i.i
  br i1 icmp ne (ptr @_ZTHN9grpc_core8Activity19g_current_activity_E, ptr null), label %7, label %_ZN9grpc_core8Activity14ScopedActivityD2Ev.exit.i.i

7:                                                ; preds = %invoke.cont.i.i
  tail call void @_ZTHN9grpc_core8Activity19g_current_activity_E() #26
  br label %_ZN9grpc_core8Activity14ScopedActivityD2Ev.exit.i.i

_ZN9grpc_core8Activity14ScopedActivityD2Ev.exit.i.i: ; preds = %7, %invoke.cont.i.i
  store ptr %4, ptr %3, align 8
  br label %if.end

lpad.i.i:                                         ; preds = %_ZN9grpc_core8Activity14ScopedActivityC2EPS0_.exit.i.i
  %8 = landingpad { ptr, i32 }
          cleanup
  br i1 icmp ne (ptr @_ZTHN9grpc_core8Activity19g_current_activity_E, ptr null), label %9, label %_ZN9grpc_core8Activity14ScopedActivityD2Ev.exit3.i.i

9:                                                ; preds = %lpad.i.i
  tail call void @_ZTHN9grpc_core8Activity19g_current_activity_E() #26
  br label %_ZN9grpc_core8Activity14ScopedActivityD2Ev.exit3.i.i

common.resume:                                    ; preds = %_ZN9grpc_core8Activity14ScopedActivityD2Ev.exit3.i.i6, %_ZN9grpc_core8Activity14ScopedActivityD2Ev.exit3.i.i
  %common.resume.op = phi { ptr, i32 } [ %8, %_ZN9grpc_core8Activity14ScopedActivityD2Ev.exit3.i.i ], [ %18, %_ZN9grpc_core8Activity14ScopedActivityD2Ev.exit3.i.i6 ]
  resume { ptr, i32 } %common.resume.op

_ZN9grpc_core8Activity14ScopedActivityD2Ev.exit3.i.i: ; preds = %9, %lpad.i.i
  store ptr %4, ptr %3, align 8
  br label %common.resume

if.end:                                           ; preds = %_ZN9grpc_core8Activity14ScopedActivityD2Ev.exit.i.i, %if.then, %entry
  %10 = atomicrmw sub ptr %sync_, i64 1099511627776 acq_rel, align 8
  %and.i.i = and i64 %10, -1099511627776
  %cmp.i.i = icmp eq i64 %and.i.i, 1099511627776
  br i1 %cmp.i.i, label %_ZN9grpc_core21PartySyncUsingAtomics5UnrefEv.exit.i, label %_ZN9grpc_core5Party5UnrefEv.exit

_ZN9grpc_core21PartySyncUsingAtomics5UnrefEv.exit.i: ; preds = %if.end
  %11 = atomicrmw or ptr %sync_, i64 38654705664 acq_rel, align 8
  %and.i.i.i = and i64 %11, 34359738368
  %cmp.i.i.i = icmp eq i64 %and.i.i.i, 0
  br i1 %cmp.i.i.i, label %if.then.i, label %_ZN9grpc_core5Party5UnrefEv.exit

if.then.i:                                        ; preds = %_ZN9grpc_core21PartySyncUsingAtomics5UnrefEv.exit.i
  br i1 icmp ne (ptr @_ZTHN9grpc_core8Activity19g_current_activity_E, ptr null), label %12, label %_ZTWN9grpc_core8Activity19g_current_activity_E.exit.i.i.i1

12:                                               ; preds = %if.then.i
  tail call void @_ZTHN9grpc_core8Activity19g_current_activity_E()
  br label %_ZTWN9grpc_core8Activity19g_current_activity_E.exit.i.i.i1

_ZTWN9grpc_core8Activity19g_current_activity_E.exit.i.i.i1: ; preds = %12, %if.then.i
  %13 = tail call noundef align 8 ptr @llvm.threadlocal.address.p0(ptr align 8 @_ZN9grpc_core8Activity19g_current_activity_E)
  %14 = load ptr, ptr %13, align 8
  br i1 icmp ne (ptr @_ZTHN9grpc_core8Activity19g_current_activity_E, ptr null), label %15, label %_ZN9grpc_core8Activity14ScopedActivityC2EPS0_.exit.i.i2

15:                                               ; preds = %_ZTWN9grpc_core8Activity19g_current_activity_E.exit.i.i.i1
  tail call void @_ZTHN9grpc_core8Activity19g_current_activity_E()
  br label %_ZN9grpc_core8Activity14ScopedActivityC2EPS0_.exit.i.i2

_ZN9grpc_core8Activity14ScopedActivityC2EPS0_.exit.i.i2: ; preds = %15, %_ZTWN9grpc_core8Activity19g_current_activity_E.exit.i.i.i1
  store ptr %this, ptr %13, align 8
  %vtable.i.i3 = load ptr, ptr %this, align 8
  %vfn.i.i4 = getelementptr inbounds i8, ptr %vtable.i.i3, i64 80
  %16 = load ptr, ptr %vfn.i.i4, align 8
  invoke void %16(ptr noundef nonnull align 8 dereferenceable(168) %this)
          to label %invoke.cont.i.i7 unwind label %lpad.i.i5

invoke.cont.i.i7:                                 ; preds = %_ZN9grpc_core8Activity14ScopedActivityC2EPS0_.exit.i.i2
  br i1 icmp ne (ptr @_ZTHN9grpc_core8Activity19g_current_activity_E, ptr null), label %17, label %_ZN9grpc_core5Party11PartyIsOverEv.exit.i

17:                                               ; preds = %invoke.cont.i.i7
  tail call void @_ZTHN9grpc_core8Activity19g_current_activity_E() #26
  br label %_ZN9grpc_core5Party11PartyIsOverEv.exit.i

lpad.i.i5:                                        ; preds = %_ZN9grpc_core8Activity14ScopedActivityC2EPS0_.exit.i.i2
  %18 = landingpad { ptr, i32 }
          cleanup
  br i1 icmp ne (ptr @_ZTHN9grpc_core8Activity19g_current_activity_E, ptr null), label %19, label %_ZN9grpc_core8Activity14ScopedActivityD2Ev.exit3.i.i6

19:                                               ; preds = %lpad.i.i5
  tail call void @_ZTHN9grpc_core8Activity19g_current_activity_E() #26
  br label %_ZN9grpc_core8Activity14ScopedActivityD2Ev.exit3.i.i6

_ZN9grpc_core8Activity14ScopedActivityD2Ev.exit3.i.i6: ; preds = %19, %lpad.i.i5
  store ptr %14, ptr %13, align 8
  br label %common.resume

_ZN9grpc_core5Party11PartyIsOverEv.exit.i:        ; preds = %17, %invoke.cont.i.i7
  store ptr %14, ptr %13, align 8
  br label %_ZN9grpc_core5Party5UnrefEv.exit

_ZN9grpc_core5Party5UnrefEv.exit:                 ; preds = %if.end, %_ZN9grpc_core21PartySyncUsingAtomics5UnrefEv.exit.i, %_ZN9grpc_core5Party11PartyIsOverEv.exit.i
  ret void
}